target datalayout = "e-m:e-p270:32:32-p271:32:32-p272:64:64-i64:64-i128:128-f80:128-n8:16:32:64-S128"
target triple = "x86_64-pc-linux-gnu"

%struct.libdeflate_compressor = type { ptr, ptr, i32, i64, i32, i32, %struct.deflate_freqs, %struct.block_split_stats, %struct.deflate_codes, %struct.deflate_codes, %union.anon, [4 x i8], %union.anon.1 }
%struct.deflate_freqs = type { [288 x i32], [32 x i32] }
%struct.block_split_stats = type { [10 x i32], [10 x i32], i32, i32 }
%struct.deflate_codes = type { %struct.deflate_codewords, %struct.deflate_lens }
%struct.deflate_codewords = type { [288 x i32], [32 x i32] }
%struct.deflate_lens = type { [288 x i8], [32 x i8] }
%union.anon = type { %struct.anon }
%struct.anon = type { [19 x i32], [19 x i32], [19 x i8], [320 x i32], i32, i32, i32, i32 }
%union.anon.1 = type { %struct.anon.4 }
%struct.anon.4 = type { %struct.bt_matchfinder, [1500513 x %struct.lz_match], [305000 x %struct.deflate_optimum_node], %struct.deflate_costs, %struct.deflate_costs, [32769 x i8], [10 x i32], i32, [259 x i32], [259 x i32], i32, i32, i32, i32, [12 x i8] }
%struct.bt_matchfinder = type { [65536 x [2 x i16]], [65536 x i16], [65536 x i16] }
%struct.lz_match = type { i16, i16 }
%struct.deflate_optimum_node = type { i32, i32 }
%struct.deflate_costs = type { [256 x i32], [259 x i32], [32 x i32] }

; Function Attrs: nounwind uwtable
define void @libdeflate_free_compressor(ptr noundef %0) #0 {
  %2 = alloca ptr, align 8
  store ptr %0, ptr %2, align 8, !tbaa !17
  %3 = load ptr, ptr %2, align 8, !tbaa !17
  %4 = icmp ne ptr %3, null
  br i1 %4, label %5, label %10

5:                                                ; preds = %1
  %6 = load ptr, ptr %2, align 8, !tbaa !17
  %7 = getelementptr inbounds nuw %struct.libdeflate_compressor, ptr %6, i32 0, i32 1
  %8 = load ptr, ptr %7, align 8, !tbaa !20
  %9 = load ptr, ptr %2, align 8, !tbaa !17
  call void @libdeflate_aligned_free(ptr noundef %8, ptr noundef %9)
  br label %10

10:                                               ; preds = %5, %1
  ret void
}