; Function Attrs: nounwind uwtable
define void @libdeflate_free_compressor(ptr noundef %0) local_unnamed_addr #0 {
  %.not = icmp eq ptr %0, null
  br i1 %.not, label %5, label %2

2:                                                ; preds = %1
  %3 = getelementptr inbounds nuw i8, ptr %0, i64 8
  %4 = load ptr, ptr %3, align 8, !tbaa !12
  tail call void @libdeflate_aligned_free(ptr noundef %4, ptr noundef nonnull %0) #15
  br label %5

5:                                                ; preds = %2, %1
  ret void
}